target datalayout = "e-m:e-p270:32:32-p271:32:32-p272:64:64-i64:64-i128:128-f80:128-n8:16:32:64-S128"
target triple = "x86_64-pc-linux-gnu"

%struct.pxr_nc_1_0_ColorSpace = type { %struct.pxr_nc_1_0_ColorSpaceDescriptor, float, float, %struct.pxr_nc_1_0_M33f }
%struct.pxr_nc_1_0_ColorSpaceDescriptor = type { ptr, %struct.pxr_nc_1_0_Chromaticity, %struct.pxr_nc_1_0_Chromaticity, %struct.pxr_nc_1_0_Chromaticity, %struct.pxr_nc_1_0_Chromaticity, float, float }
%struct.pxr_nc_1_0_Chromaticity = type { float, float }
%struct.pxr_nc_1_0_M33f = type { [9 x float] }

; Function Attrs: nounwind uwtable
define void @pxr_nc_1_0_InitColorSpaceLibrary() #0 {
  %1 = alloca i64, align 8
  store i64 0, ptr %1, align 8
  br label %2

2:                                                ; preds = %8, %0
  %3 = load i64, ptr %1, align 8
  %4 = icmp ult i64 %3, 18
  br i1 %4, label %5, label %11

5:                                                ; preds = %2
  %6 = load i64, ptr %1, align 8
  %7 = getelementptr inbounds [18 x %struct.pxr_nc_1_0_ColorSpace], ptr @_colorSpaces, i64 0, i64 %6
  call void @_NcInitColorSpace(ptr noundef %7)
  br label %8

8:                                                ; preds = %5
  %9 = load i64, ptr %1, align 8
  %10 = add i64 %9, 1
  store i64 %10, ptr %1, align 8
  br label %2, !llvm.loop !6

11:                                               ; preds = %2
  ret void
}