; Function Attrs: nofree nounwind memory(readwrite, argmem: write, inaccessiblemem: write) uwtable
define void @pxr_nc_1_0_InitColorSpaceLibrary() local_unnamed_addr #5 {
  br label %1

1:                                                ; preds = %0, %1
  %.03 = phi i64 [ 0, %0 ], [ %3, %1 ]
  %2 = getelementptr inbounds [18 x %struct.pxr_nc_1_0_ColorSpace], ptr @_colorSpaces, i64 0, i64 %.03
  tail call fastcc void @_NcInitColorSpace(ptr noundef nonnull %2)
  %3 = add nuw nsw i64 %.03, 1
  %exitcond.not = icmp eq i64 %3, 18
  br i1 %exitcond.not, label %4, label %1, !llvm.loop !6

4:                                                ; preds = %1
  ret void
}